; Function Attrs: mustprogress nofree uwtable
define noundef i64 @_ZN18OpenImageIO_v2_6_010Filesystem6IOFile5preadEPvml(ptr nocapture noundef nonnull readonly align 8 dereferenceable(152) %this, ptr nocapture noundef %buf, i64 noundef %size, i64 noundef %offset) unnamed_addr #18 align 2 {
entry:
  %m_file = getelementptr inbounds i8, ptr %this, i64 88
  %0 = load ptr, ptr %m_file, align 8
  %tobool = icmp ne ptr %0, null
  %tobool2 = icmp ne i64 %size, 0
  %or.cond.not5.not7 = and i1 %tobool2, %tobool
  %cmp = icmp sgt i64 %offset, -1
  %or.cond1.not6 = and i1 %cmp, %or.cond.not5.not7
  %m_mode = getelementptr inbounds i8, ptr %this, i64 48
  %1 = load i32, ptr %m_mode, align 8
  %cmp5.not = icmp eq i32 %1, 114
  %or.cond = select i1 %or.cond1.not6, i1 %cmp5.not, i1 false
  br i1 %or.cond, label %if.end, label %return

if.end:                                           ; preds = %entry
  %call = tail call i32 @fileno(ptr noundef nonnull %0) #32
  %call7 = tail call i64 @pread(i32 noundef %call, ptr noundef %buf, i64 noundef %size, i64 noundef %offset)
  %cond = tail call i64 @llvm.smax.i64(i64 %call7, i64 0)
  br label %return

return:                                           ; preds = %entry, %if.end
  %retval.0 = phi i64 [ %cond, %if.end ], [ 0, %entry ]
  ret i64 %retval.0
}